; Function Attrs: mustprogress uwtable
define hidden void @_ZNK4cvc58internal19RealAlgebraicNumbermiERKS1_(ptr dead_on_unwind noalias writable sret(%"class.cvc5::internal::RealAlgebraicNumber") align 8 %0, ptr noundef nonnull align 8 dereferenceable(32) %1, ptr noundef nonnull align 8 dereferenceable(32) %2) local_unnamed_addr #0 align 2 personality ptr @__gxx_personality_v0 {
  %4 = alloca %"class.cvc5::internal::Rational", align 8
  call void @llvm.lifetime.start.p0(i64 32, ptr nonnull %4) #20
  call void @_ZNK4cvc58internal8RationalmiERKS1_(ptr dead_on_unwind nonnull writable sret(%"class.cvc5::internal::Rational") align 8 %4, ptr noundef nonnull align 8 dereferenceable(32) %1, ptr noundef nonnull align 8 dereferenceable(32) %2)
  invoke void @__gmpz_init_set(ptr noundef nonnull align 8 dereferenceable(32) %0, ptr noundef nonnull align 8 dereferenceable(32) %4)
          to label %.noexc unwind label %15

.noexc:                                           ; preds = %3
  %5 = getelementptr inbounds nuw i8, ptr %0, i64 16
  %6 = getelementptr inbounds nuw i8, ptr %4, i64 16
  invoke void @__gmpz_init_set(ptr noundef nonnull %5, ptr noundef nonnull %6)
          to label %.noexc3 unwind label %15

.noexc3:                                          ; preds = %.noexc
  invoke void @__gmpq_canonicalize(ptr noundef nonnull align 8 dereferenceable(32) %0)
          to label %_ZN4cvc58internal19RealAlgebraicNumberC2ERKNS0_8RationalE.exit unwind label %7

7:                                                ; preds = %.noexc3
  %8 = landingpad { ptr, i32 }
          cleanup
  invoke void @__gmpq_clear(ptr noundef nonnull align 8 dereferenceable(32) %0)
          to label %.body unwind label %9

9:                                                ; preds = %7
  %10 = landingpad { ptr, i32 }
          catch ptr null
  %11 = extractvalue { ptr, i32 } %10, 0
  call void @__clang_call_terminate(ptr %11) #19
  unreachable

_ZN4cvc58internal19RealAlgebraicNumberC2ERKNS0_8RationalE.exit: ; preds = %.noexc3
  invoke void @__gmpq_clear(ptr noundef nonnull align 8 dereferenceable(32) %4)
          to label %_ZN4cvc58internal8RationalD2Ev.exit unwind label %12

12:                                               ; preds = %_ZN4cvc58internal19RealAlgebraicNumberC2ERKNS0_8RationalE.exit
  %13 = landingpad { ptr, i32 }
          catch ptr null
  %14 = extractvalue { ptr, i32 } %13, 0
  call void @__clang_call_terminate(ptr %14) #19
  unreachable

_ZN4cvc58internal8RationalD2Ev.exit:              ; preds = %_ZN4cvc58internal19RealAlgebraicNumberC2ERKNS0_8RationalE.exit
  call void @llvm.lifetime.end.p0(i64 32, ptr nonnull %4) #20
  ret void

15:                                               ; preds = %.noexc, %3
  %16 = landingpad { ptr, i32 }
          cleanup
  br label %.body

.body:                                            ; preds = %7, %15
  %eh.lpad-body = phi { ptr, i32 } [ %16, %15 ], [ %8, %7 ]
  invoke void @__gmpq_clear(ptr noundef nonnull align 8 dereferenceable(32) %4)
          to label %_ZN4cvc58internal8RationalD2Ev.exit4 unwind label %17

17:                                               ; preds = %.body
  %18 = landingpad { ptr, i32 }
          catch ptr null
  %19 = extractvalue { ptr, i32 } %18, 0
  call void @__clang_call_terminate(ptr %19) #19
  unreachable

_ZN4cvc58internal8RationalD2Ev.exit4:             ; preds = %.body
  call void @llvm.lifetime.end.p0(i64 32, ptr nonnull %4) #20
  resume { ptr, i32 } %eh.lpad-body
}